; ModuleID = 'source-C-CXX/29/1145.cpp'
source_filename = "source-C-CXX/29/1145.cpp"
target datalayout = "e-m:e-p270:32:32-p271:32:32-p272:64:64-i64:64-f80:128-n8:16:32:64-S128"
target triple = "x86_64-pc-linux-gnu"

%"class.std::ios_base::Init" = type { i8 }
%"class.std::basic_istream" = type { i32 (...)**, i64, %"class.std::basic_ios" }
%"class.std::basic_ios" = type { %"class.std::ios_base", %"class.std::basic_ostream"*, i8, i8, %"class.std::basic_streambuf"*, %"class.std::ctype"*, %"class.std::num_put"*, %"class.std::num_get"* }
%"class.std::ios_base" = type { i32 (...)**, i64, i64, i32, i32, i32, %"struct.std::ios_base::_Callback_list"*, %"struct.std::ios_base::_Words", [8 x %"struct.std::ios_base::_Words"], i32, %"struct.std::ios_base::_Words"*, %"class.std::locale" }
%"struct.std::ios_base::_Callback_list" = type { %"struct.std::ios_base::_Callback_list"*, void (i32, %"class.std::ios_base"*, i32)*, i32, i32 }
%"struct.std::ios_base::_Words" = type { i8*, i64 }
%"class.std::locale" = type { %"class.std::locale::_Impl"* }
%"class.std::locale::_Impl" = type { i32, %"class.std::locale::facet"**, i64, %"class.std::locale::facet"**, i8** }
%"class.std::locale::facet" = type <{ i32 (...)**, i32, [4 x i8] }>
%"class.std::basic_ostream" = type { i32 (...)**, %"class.std::basic_ios" }
%"class.std::basic_streambuf" = type { i32 (...)**, i8*, i8*, i8*, i8*, i8*, i8*, %"class.std::locale" }
%"class.std::ctype" = type <{ %"class.std::locale::facet.base", [4 x i8], %struct.__locale_struct*, i8, [7 x i8], i32*, i32*, i16*, i8, [256 x i8], [256 x i8], i8, [6 x i8] }>
%"class.std::locale::facet.base" = type <{ i32 (...)**, i32 }>
%struct.__locale_struct = type { [13 x %struct.__locale_data*], i16*, i32*, i32*, [13 x i8*] }
%struct.__locale_data = type opaque
%"class.std::num_put" = type { %"class.std::locale::facet.base", [4 x i8] }
%"class.std::num_get" = type { %"class.std::locale::facet.base", [4 x i8] }

@_ZStL8__ioinit = internal global %"class.std::ios_base::Init" zeroinitializer, align 1
@__dso_handle = external hidden global i8
@_ZSt3cin = external global %"class.std::basic_istream", align 8
@_ZSt4cout = external global %"class.std::basic_ostream", align 8
@llvm.global_ctors = appending global [1 x { i32, void ()*, i8* }] [{ i32, void ()*, i8* } { i32 65535, void ()* @_GLOBAL__sub_I_1145.cpp, i8* null }]

declare void @_ZNSt8ios_base4InitC1Ev(%"class.std::ios_base::Init"* nonnull align 1 dereferenceable(1)) unnamed_addr #0

; Function Attrs: nounwind
declare void @_ZNSt8ios_base4InitD1Ev(%"class.std::ios_base::Init"* nonnull align 1 dereferenceable(1)) unnamed_addr #1

; Function Attrs: nofree nounwind
declare i32 @__cxa_atexit(void (i8*)*, i8*, i8*) local_unnamed_addr #2

; Function Attrs: mustprogress norecurse sspstrong uwtable
define dso_local i32 @main() local_unnamed_addr #3 {
  %1 = alloca i32, align 4
  %2 = bitcast i32* %1 to i8*
  call void @llvm.lifetime.start.p0i8(i64 4, i8* nonnull %2) #8
  %3 = call nonnull align 8 dereferenceable(16) %"class.std::basic_istream"* @_ZNSirsERi(%"class.std::basic_istream"* nonnull align 8 dereferenceable(16) @_ZSt3cin, i32* nonnull align 4 dereferenceable(4) %1)
  %4 = load i32, i32* %1, align 4, !tbaa !5
  %5 = icmp sgt i32 %4, 0
  br i1 %5, label %6, label %77

6:                                                ; preds = %0
  %7 = icmp ult i32 %4, 8
  br i1 %7, label %55, label %8

8:                                                ; preds = %6
  %9 = and i32 %4, -8
  %10 = and i32 %4, 7
  %11 = insertelement <4 x i32> poison, i32 %4, i32 0
  %12 = shufflevector <4 x i32> %11, <4 x i32> poison, <4 x i32> zeroinitializer
  %13 = add <4 x i32> %12, <i32 0, i32 -1, i32 -2, i32 -3>
  br label %14

14:                                               ; preds = %14, %8
  %15 = phi i32 [ 0, %8 ], [ %48, %14 ]
  %16 = phi <4 x i32> [ zeroinitializer, %8 ], [ %45, %14 ]
  %17 = phi <4 x i32> [ zeroinitializer, %8 ], [ %47, %14 ]
  %18 = phi <4 x i32> [ %13, %8 ], [ %49, %14 ]
  %19 = add <4 x i32> %18, <i32 -4, i32 -4, i32 -4, i32 -4>
  %20 = urem <4 x i32> %18, <i32 7, i32 7, i32 7, i32 7>
  %21 = urem <4 x i32> %19, <i32 7, i32 7, i32 7, i32 7>
  %22 = icmp ne <4 x i32> %20, zeroinitializer
  %23 = icmp ne <4 x i32> %21, zeroinitializer
  %24 = freeze <4 x i32> %18
  %25 = udiv <4 x i32> %24, <i32 10, i32 10, i32 10, i32 10>
  %26 = mul <4 x i32> %25, <i32 10, i32 10, i32 10, i32 10>
  %27 = sub <4 x i32> %24, %26
  %28 = freeze <4 x i32> %19
  %29 = udiv <4 x i32> %28, <i32 10, i32 10, i32 10, i32 10>
  %30 = mul <4 x i32> %29, <i32 10, i32 10, i32 10, i32 10>
  %31 = sub <4 x i32> %28, %30
  %32 = icmp ne <4 x i32> %27, <i32 7, i32 7, i32 7, i32 7>
  %33 = icmp ne <4 x i32> %31, <i32 7, i32 7, i32 7, i32 7>
  %34 = urem <4 x i32> %25, <i32 10, i32 10, i32 10, i32 10>
  %35 = urem <4 x i32> %29, <i32 10, i32 10, i32 10, i32 10>
  %36 = icmp ne <4 x i32> %34, <i32 7, i32 7, i32 7, i32 7>
  %37 = icmp ne <4 x i32> %35, <i32 7, i32 7, i32 7, i32 7>
  %38 = mul nsw <4 x i32> %18, %18
  %39 = mul nsw <4 x i32> %19, %19
  %40 = and <4 x i1> %22, %32
  %41 = and <4 x i1> %23, %33
  %42 = select <4 x i1> %40, <4 x i1> %36, <4 x i1> zeroinitializer
  %43 = select <4 x i1> %41, <4 x i1> %37, <4 x i1> zeroinitializer
  %44 = select <4 x i1> %42, <4 x i32> %38, <4 x i32> zeroinitializer
  %45 = add <4 x i32> %16, %44
  %46 = select <4 x i1> %43, <4 x i32> %39, <4 x i32> zeroinitializer
  %47 = add <4 x i32> %17, %46
  %48 = add nuw i32 %15, 8
  %49 = add <4 x i32> %18, <i32 -8, i32 -8, i32 -8, i32 -8>
  %50 = icmp eq i32 %48, %9
  br i1 %50, label %51, label %14, !llvm.loop !9

51:                                               ; preds = %14
  %52 = add <4 x i32> %47, %45
  %53 = call i32 @llvm.vector.reduce.add.v4i32(<4 x i32> %52)
  %54 = icmp eq i32 %4, %9
  br i1 %54, label %75, label %55

55:                                               ; preds = %6, %51
  %56 = phi i32 [ 0, %6 ], [ %53, %51 ]
  %57 = phi i32 [ %4, %6 ], [ %10, %51 ]
  br label %58

58:                                               ; preds = %55, %58
  %59 = phi i32 [ %72, %58 ], [ %56, %55 ]
  %60 = phi i32 [ %73, %58 ], [ %57, %55 ]
  %61 = urem i32 %60, 7
  %62 = icmp eq i32 %61, 0
  %63 = urem i32 %60, 10
  %64 = udiv i32 %60, 10
  %65 = icmp eq i32 %63, 7
  %66 = or i1 %62, %65
  %67 = urem i32 %64, 10
  %68 = icmp eq i32 %67, 7
  %69 = select i1 %66, i1 true, i1 %68
  %70 = mul nsw i32 %60, %60
  %71 = add nsw i32 %59, %70
  %72 = select i1 %69, i32 %59, i32 %71
  %73 = add nsw i32 %60, -1
  %74 = icmp sgt i32 %60, 1
  br i1 %74, label %58, label %75, !llvm.loop !12

75:                                               ; preds = %58, %51
  %76 = phi i32 [ %53, %51 ], [ %72, %58 ]
  store i32 0, i32* %1, align 4, !tbaa !5
  br label %77

77:                                               ; preds = %75, %0
  %78 = phi i32 [ %76, %75 ], [ 0, %0 ]
  %79 = call nonnull align 8 dereferenceable(8) %"class.std::basic_ostream"* @_ZNSolsEi(%"class.std::basic_ostream"* nonnull align 8 dereferenceable(8) @_ZSt4cout, i32 %78)
  %80 = bitcast %"class.std::basic_ostream"* %79 to i8**
  %81 = load i8*, i8** %80, align 8, !tbaa !14
  %82 = getelementptr i8, i8* %81, i64 -24
  %83 = bitcast i8* %82 to i64*
  %84 = load i64, i64* %83, align 8
  %85 = bitcast %"class.std::basic_ostream"* %79 to i8*
  %86 = add nsw i64 %84, 240
  %87 = getelementptr inbounds i8, i8* %85, i64 %86
  %88 = bitcast i8* %87 to %"class.std::ctype"**
  %89 = load %"class.std::ctype"*, %"class.std::ctype"** %88, align 8, !tbaa !16
  %90 = icmp eq %"class.std::ctype"* %89, null
  br i1 %90, label %91, label %92

91:                                               ; preds = %77
  call void @_ZSt16__throw_bad_castv() #9
  unreachable

92:                                               ; preds = %77
  %93 = getelementptr inbounds %"class.std::ctype", %"class.std::ctype"* %89, i64 0, i32 8
  %94 = load i8, i8* %93, align 8, !tbaa !20
  %95 = icmp eq i8 %94, 0
  br i1 %95, label %99, label %96

96:                                               ; preds = %92
  %97 = getelementptr inbounds %"class.std::ctype", %"class.std::ctype"* %89, i64 0, i32 9, i64 10
  %98 = load i8, i8* %97, align 1, !tbaa !22
  br label %105

99:                                               ; preds = %92
  call void @_ZNKSt5ctypeIcE13_M_widen_initEv(%"class.std::ctype"* nonnull align 8 dereferenceable(570) %89)
  %100 = bitcast %"class.std::ctype"* %89 to i8 (%"class.std::ctype"*, i8)***
  %101 = load i8 (%"class.std::ctype"*, i8)**, i8 (%"class.std::ctype"*, i8)*** %100, align 8, !tbaa !14
  %102 = getelementptr inbounds i8 (%"class.std::ctype"*, i8)*, i8 (%"class.std::ctype"*, i8)** %101, i64 6
  %103 = load i8 (%"class.std::ctype"*, i8)*, i8 (%"class.std::ctype"*, i8)** %102, align 8
  %104 = call signext i8 %103(%"class.std::ctype"* nonnull align 8 dereferenceable(570) %89, i8 signext 10)
  br label %105

105:                                              ; preds = %96, %99
  %106 = phi i8 [ %98, %96 ], [ %104, %99 ]
  %107 = call nonnull align 8 dereferenceable(8) %"class.std::basic_ostream"* @_ZNSo3putEc(%"class.std::basic_ostream"* nonnull align 8 dereferenceable(8) %79, i8 signext %106)
  %108 = call nonnull align 8 dereferenceable(8) %"class.std::basic_ostream"* @_ZNSo5flushEv(%"class.std::basic_ostream"* nonnull align 8 dereferenceable(8) %107)
  call void @llvm.lifetime.end.p0i8(i64 4, i8* nonnull %2) #8
  ret i32 0
}

; Function Attrs: argmemonly mustprogress nofree nosync nounwind willreturn
declare void @llvm.lifetime.start.p0i8(i64 immarg, i8* nocapture) #4

declare nonnull align 8 dereferenceable(16) %"class.std::basic_istream"* @_ZNSirsERi(%"class.std::basic_istream"* nonnull align 8 dereferenceable(16), i32* nonnull align 4 dereferenceable(4)) local_unnamed_addr #0

declare nonnull align 8 dereferenceable(8) %"class.std::basic_ostream"* @_ZNSolsEi(%"class.std::basic_ostream"* nonnull align 8 dereferenceable(8), i32) local_unnamed_addr #0

; Function Attrs: argmemonly mustprogress nofree nosync nounwind willreturn
declare void @llvm.lifetime.end.p0i8(i64 immarg, i8* nocapture) #4

declare nonnull align 8 dereferenceable(8) %"class.std::basic_ostream"* @_ZNSo3putEc(%"class.std::basic_ostream"* nonnull align 8 dereferenceable(8), i8 signext) local_unnamed_addr #0

declare nonnull align 8 dereferenceable(8) %"class.std::basic_ostream"* @_ZNSo5flushEv(%"class.std::basic_ostream"* nonnull align 8 dereferenceable(8)) local_unnamed_addr #0

; Function Attrs: noreturn
declare void @_ZSt16__throw_bad_castv() local_unnamed_addr #5

declare void @_ZNKSt5ctypeIcE13_M_widen_initEv(%"class.std::ctype"* nonnull align 8 dereferenceable(570)) local_unnamed_addr #0

; Function Attrs: sspstrong uwtable
define internal void @_GLOBAL__sub_I_1145.cpp() #6 section ".text.startup" {
  tail call void @_ZNSt8ios_base4InitC1Ev(%"class.std::ios_base::Init"* nonnull align 1 dereferenceable(1) @_ZStL8__ioinit)
  %1 = tail call i32 @__cxa_atexit(void (i8*)* bitcast (void (%"class.std::ios_base::Init"*)* @_ZNSt8ios_base4InitD1Ev to void (i8*)*), i8* getelementptr inbounds (%"class.std::ios_base::Init", %"class.std::ios_base::Init"* @_ZStL8__ioinit, i64 0, i32 0), i8* nonnull @__dso_handle) #8
  ret void
}

; Function Attrs: nofree nosync nounwind readnone willreturn
declare i32 @llvm.vector.reduce.add.v4i32(<4 x i32>) #7


!llvm.module.flags = !{!0, !1, !2, !3}
!llvm.ident = !{!4}

!0 = !{i32 1, !"wchar_size", i32 4}
!1 = !{i32 7, !"PIC Level", i32 2}
!2 = !{i32 7, !"PIE Level", i32 2}
!3 = !{i32 7, !"uwtable", i32 1}
!4 = !{!"clang version 13.0.0"}
!5 = !{!6, !6, i64 0}
!6 = !{!"int", !7, i64 0}
!7 = !{!"omnipotent char", !8, i64 0}
!8 = !{!"Simple C++ TBAA"}
!9 = distinct !{!9, !10, !11}
!10 = !{!"llvm.loop.mustprogress"}
!11 = !{!"llvm.loop.isvectorized", i32 1}
!12 = distinct !{!12, !10, !13, !11}
!13 = !{!"llvm.loop.unroll.runtime.disable"}
!14 = !{!15, !15, i64 0}
!15 = !{!"vtable pointer", !8, i64 0}
!16 = !{!17, !18, i64 240}
!17 = !{!"_ZTSSt9basic_iosIcSt11char_traitsIcEE", !18, i64 216, !7, i64 224, !19, i64 225, !18, i64 232, !18, i64 240, !18, i64 248, !18, i64 256}
!18 = !{!"any pointer", !7, i64 0}
!19 = !{!"bool", !7, i64 0}
!20 = !{!21, !7, i64 56}
!21 = !{!"_ZTSSt5ctypeIcE", !18, i64 16, !19, i64 24, !18, i64 32, !18, i64 40, !18, i64 48, !7, i64 56, !7, i64 57, !7, i64 313, !7, i64 569}
!22 = !{!7, !7, i64 0}
